; Function Attrs: nounwind uwtable
define internal fastcc zeroext i1 @HIDAPI_DriverPS5_UpdateEffects(ptr noundef captures(none) %0, i32 noundef range(i32 0, 25) %1, i1 noundef zeroext %2) unnamed_addr #0 {
  %4 = alloca %struct.DS5EffectsState_t, align 1
  call void @llvm.lifetime.start.p0(i64 47, ptr nonnull %4) #9
  %5 = load ptr, ptr %0, align 8
  %6 = getelementptr inbounds nuw i8, ptr %5, i64 84
  %7 = load i8, ptr %6, align 4, !range !5, !noundef !6
  %8 = trunc nuw i8 %7 to i1
  br i1 %8, label %9, label %17

9:                                                ; preds = %3
  %10 = getelementptr inbounds nuw i8, ptr %0, i64 28
  %11 = load i8, ptr %10, align 4, !range !5, !noundef !6
  %12 = trunc nuw i8 %11 to i1
  %.not = icmp samesign ugt i32 %1, 7
  %or.cond.not = select i1 %12, i1 %.not, i1 false
  br i1 %or.cond.not, label %13, label %17

13:                                               ; preds = %9
  %14 = getelementptr inbounds nuw i8, ptr %0, i64 108
  %15 = load i32, ptr %14, align 4
  %.not30 = icmp eq i32 %15, 2
  br i1 %.not30, label %17, label %16

16:                                               ; preds = %13
  store i32 1, ptr %14, align 4
  br label %109

17:                                               ; preds = %13, %9, %3
  call void @llvm.memset.p0.i64(ptr noundef nonnull align 1 dereferenceable(47) %4, i8 0, i64 47, i1 false)
  %18 = getelementptr inbounds nuw i8, ptr %0, i64 20
  %19 = load i8, ptr %18, align 4, !range !5, !noundef !6
  %20 = trunc nuw i8 %19 to i1
  br i1 %20, label %21, label %48

21:                                               ; preds = %17
  %22 = getelementptr inbounds nuw i8, ptr %0, i64 101
  %23 = load i8, ptr %22, align 1
  %.not31 = icmp eq i8 %23, 0
  br i1 %.not31, label %24, label %27

24:                                               ; preds = %21
  %25 = getelementptr inbounds nuw i8, ptr %0, i64 102
  %26 = load i8, ptr %25, align 2
  %.not32 = icmp eq i8 %26, 0
  br i1 %.not32, label %44, label %27

27:                                               ; preds = %24, %21
  %28 = getelementptr inbounds nuw i8, ptr %0, i64 84
  %29 = load i16, ptr %28, align 4
  %30 = icmp ult i16 %29, 548
  br i1 %30, label %31, label %36

31:                                               ; preds = %27
  %32 = lshr i8 %23, 1
  %33 = getelementptr inbounds nuw i8, ptr %0, i64 102
  %34 = load i8, ptr %33, align 2
  %35 = lshr i8 %34, 1
  br label %40

36:                                               ; preds = %27
  %37 = getelementptr inbounds nuw i8, ptr %4, i64 38
  store i8 4, ptr %37, align 1
  %38 = getelementptr inbounds nuw i8, ptr %0, i64 102
  %39 = load i8, ptr %38, align 2
  br label %40

40:                                               ; preds = %36, %31
  %41 = phi i8 [ 3, %31 ], [ 2, %36 ]
  %.sink40 = phi i8 [ %32, %31 ], [ %23, %36 ]
  %.sink = phi i8 [ %35, %31 ], [ %39, %36 ]
  %42 = getelementptr inbounds nuw i8, ptr %4, i64 3
  store i8 %.sink40, ptr %42, align 1
  %43 = getelementptr inbounds nuw i8, ptr %4, i64 2
  store i8 %.sink, ptr %43, align 1
  store i8 %41, ptr %4, align 1
  br label %44

44:                                               ; preds = %24, %40
  %45 = phi i8 [ 2, %24 ], [ %41, %40 ]
  %46 = and i32 %1, 1
  %.not33 = icmp eq i32 %46, 0
  br i1 %.not33, label %48, label %47

47:                                               ; preds = %44
  store i8 %45, ptr %4, align 1
  br label %48

48:                                               ; preds = %44, %47, %17
  %49 = getelementptr inbounds nuw i8, ptr %0, i64 19
  %50 = load i8, ptr %49, align 1, !range !5, !noundef !6
  %51 = trunc nuw i8 %50 to i1
  br i1 %51, label %52, label %85

52:                                               ; preds = %48
  %53 = and i32 %1, 4
  %.not34 = icmp eq i32 %53, 0
  br i1 %.not34, label %56, label %54

54:                                               ; preds = %52
  %55 = getelementptr inbounds nuw i8, ptr %4, i64 1
  store i8 8, ptr %55, align 1
  br label %56

56:                                               ; preds = %54, %52
  %57 = phi i8 [ 8, %54 ], [ 0, %52 ]
  %58 = and i32 %1, 8
  %.not35 = icmp eq i32 %58, 0
  br i1 %.not35, label %85, label %59

59:                                               ; preds = %56
  %60 = getelementptr inbounds nuw i8, ptr %4, i64 1
  %61 = or disjoint i8 %57, 4
  store i8 %61, ptr %60, align 1
  %62 = getelementptr inbounds nuw i8, ptr %0, i64 103
  %63 = load i8, ptr %62, align 1, !range !5, !noundef !6
  %64 = trunc nuw i8 %63 to i1
  br i1 %64, label %65, label %73

65:                                               ; preds = %59
  %66 = getelementptr inbounds nuw i8, ptr %0, i64 104
  %67 = load i8, ptr %66, align 8
  %68 = getelementptr inbounds nuw i8, ptr %4, i64 44
  store i8 %67, ptr %68, align 1
  %69 = getelementptr inbounds nuw i8, ptr %0, i64 105
  %70 = load i8, ptr %69, align 1
  %71 = getelementptr inbounds nuw i8, ptr %4, i64 45
  store i8 %70, ptr %71, align 1
  %72 = getelementptr inbounds nuw i8, ptr %0, i64 106
  br label %.sink.split

73:                                               ; preds = %59
  %74 = getelementptr inbounds nuw i8, ptr %0, i64 96
  %75 = load i32, ptr %74, align 8
  %76 = urem i32 %75, 7
  %.inv.i = icmp slt i32 %75, 0
  %narrow.i = select i1 %.inv.i, i32 0, i32 %76
  %.0.i = zext nneg i32 %narrow.i to i64
  %77 = getelementptr inbounds nuw [7 x [3 x i8]], ptr @SetLedsForPlayerIndex.colors, i64 0, i64 %.0.i
  %78 = load i8, ptr %77, align 1
  %79 = getelementptr inbounds nuw i8, ptr %4, i64 44
  store i8 %78, ptr %79, align 1
  %80 = getelementptr inbounds nuw i8, ptr %77, i64 1
  %81 = load i8, ptr %80, align 1
  %82 = getelementptr inbounds nuw i8, ptr %4, i64 45
  store i8 %81, ptr %82, align 1
  %83 = getelementptr inbounds nuw i8, ptr %77, i64 2
  br label %.sink.split

.sink.split:                                      ; preds = %65, %73
  %.sink41.in = phi ptr [ %83, %73 ], [ %72, %65 ]
  %.sink41 = load i8, ptr %.sink41.in, align 1
  %84 = getelementptr inbounds nuw i8, ptr %4, i64 46
  store i8 %.sink41, ptr %84, align 1
  br label %85

85:                                               ; preds = %.sink.split, %56, %48
  %86 = phi i8 [ %57, %56 ], [ 0, %48 ], [ %61, %.sink.split ]
  %87 = getelementptr inbounds nuw i8, ptr %0, i64 21
  %88 = load i8, ptr %87, align 1, !range !5, !noundef !6
  %89 = trunc nuw i8 %88 to i1
  %.not36 = icmp samesign ugt i32 %1, 15
  %or.cond39.not = select i1 %89, i1 %.not36, i1 false
  br i1 %or.cond39.not, label %90, label %107

90:                                               ; preds = %85
  %91 = getelementptr inbounds nuw i8, ptr %4, i64 1
  %92 = or i8 %86, 16
  store i8 %92, ptr %91, align 1
  %93 = getelementptr inbounds nuw i8, ptr %0, i64 100
  %94 = load i8, ptr %93, align 4, !range !5, !noundef !6
  %95 = trunc nuw i8 %94 to i1
  br i1 %95, label %96, label %.sink.split43

96:                                               ; preds = %90
  %97 = getelementptr inbounds nuw i8, ptr %0, i64 96
  %98 = load i32, ptr %97, align 8
  %99 = icmp sgt i32 %98, -1
  br i1 %99, label %100, label %.sink.split43

100:                                              ; preds = %96
  %101 = urem i32 %98, 5
  %102 = zext nneg i32 %101 to i64
  %103 = getelementptr inbounds nuw [5 x i8], ptr @SetLightsForPlayerIndex.lights, i64 0, i64 %102
  %104 = load i8, ptr %103, align 1
  %105 = or i8 %104, 32
  br label %.sink.split43

.sink.split43:                                    ; preds = %90, %100, %96
  %.sink.i.sink = phi i8 [ %105, %100 ], [ 0, %96 ], [ 0, %90 ]
  %106 = getelementptr inbounds nuw i8, ptr %4, i64 43
  store i8 %.sink.i.sink, ptr %106, align 1
  br label %107

107:                                              ; preds = %.sink.split43, %85
  %108 = call fastcc zeroext i1 @HIDAPI_DriverPS5_InternalSendJoystickEffect(ptr noundef nonnull %0, ptr noundef nonnull %4, i32 noundef 47, i1 noundef zeroext %2)
  br label %109

109:                                              ; preds = %107, %16
  %.0 = phi i1 [ true, %16 ], [ %108, %107 ]
  call void @llvm.lifetime.end.p0(i64 47, ptr nonnull %4) #9
  ret i1 %.0
}